; Function Attrs: nounwind uwtable
define void @enc_free(ptr noundef %0) local_unnamed_addr #0 {
  %2 = load ptr, ptr %0, align 8, !tbaa !4
  %.not = icmp eq ptr %2, null
  br i1 %.not, label %9, label %3

3:                                                ; preds = %1
  %4 = getelementptr inbounds nuw i8, ptr %2, i64 8
  %5 = load ptr, ptr %4, align 8, !tbaa !9
  %.not7 = icmp eq ptr %5, null
  br i1 %.not7, label %8, label %6

6:                                                ; preds = %3
  %7 = getelementptr inbounds nuw i8, ptr %5, i64 504
  tail call void @av_freep(ptr noundef nonnull %7) #15
  br label %8

8:                                                ; preds = %6, %3
  tail call void @avcodec_free_context(ptr noundef nonnull %4) #15
  tail call void @av_freep(ptr noundef nonnull %0) #15
  br label %9

9:                                                ; preds = %1, %8
  ret void
}